#include <math.h>
#include <stdio.h>
#include <stdlib.h>
#include <string.h>

int main ()
{
    int m,n,i,bn=0,s=0;
    int a[300]={0};
    int b[300]={0};
    scanf("%d",&n);
    for (i=0;i<n;i++)
    {
        scanf("%d",&a[i]);
       for (m=0;m<i;m++)
       {
           if (a[i]==a[m])
           s=1;
       }
       if (s==0)
       {
                          b[bn]=a[i];
                          bn++;
           }
        s=0;
    }    
    printf ("%d",b[0]);
    for (i=1;i<bn;i++)
    {
        printf(",%d",b[i]);
    }
         return 0;
}
