; ModuleID = 'source-C-CXX/52/1612.c'
source_filename = "source-C-CXX/52/1612.c"
target datalayout = "e-m:e-p270:32:32-p271:32:32-p272:64:64-i64:64-f80:128-n8:16:32:64-S128"
target triple = "x86_64-pc-linux-gnu"

@.str = private unnamed_addr constant [3 x i8] c"%d\00", align 1
@.str.1 = private unnamed_addr constant [4 x i8] c",%d\00", align 1

; Function Attrs: nofree nounwind sspstrong uwtable
define dso_local i32 @main() local_unnamed_addr #0 {
  %1 = alloca i32, align 4
  %2 = alloca [300 x i32], align 16
  %3 = alloca [300 x i32], align 16
  %4 = bitcast i32* %1 to i8*
  call void @llvm.lifetime.start.p0i8(i64 4, i8* nonnull %4) #4
  %5 = bitcast [300 x i32]* %2 to i8*
  call void @llvm.lifetime.start.p0i8(i64 1200, i8* nonnull %5) #4
  call void @llvm.memset.p0i8.i64(i8* noundef nonnull align 16 dereferenceable(1200) %5, i8 0, i64 1200, i1 false)
  %6 = bitcast [300 x i32]* %3 to i8*
  call void @llvm.lifetime.start.p0i8(i64 1200, i8* nonnull %6) #4
  call void @llvm.memset.p0i8.i64(i8* noundef nonnull align 16 dereferenceable(1200) %6, i8 0, i64 1200, i1 false)
  %7 = call i32 (i8*, ...) @__isoc99_scanf(i8* getelementptr inbounds ([3 x i8], [3 x i8]* @.str, i64 0, i64 0), i32* nonnull %1)
  %8 = load i32, i32* %1, align 4, !tbaa !5
  %9 = icmp sgt i32 %8, 0
  br i1 %9, label %12, label %10

10:                                               ; preds = %0
  %11 = call i32 (i8*, ...) @printf(i8* nonnull dereferenceable(1) getelementptr inbounds ([3 x i8], [3 x i8]* @.str, i64 0, i64 0), i32 0)
  br label %95

12:                                               ; preds = %0, %75
  %13 = phi i64 [ %77, %75 ], [ 0, %0 ]
  %14 = phi i32 [ %76, %75 ], [ 0, %0 ]
  %15 = getelementptr inbounds [300 x i32], [300 x i32]* %2, i64 0, i64 %13
  %16 = call i32 (i8*, ...) @__isoc99_scanf(i8* getelementptr inbounds ([3 x i8], [3 x i8]* @.str, i64 0, i64 0), i32* nonnull %15)
  %17 = icmp eq i64 %13, 0
  br i1 %17, label %70, label %18

18:                                               ; preds = %12
  %19 = add nsw i64 %13, -1
  %20 = load i32, i32* %15, align 4, !tbaa !5
  %21 = and i64 %13, 3
  %22 = icmp ult i64 %19, 3
  br i1 %22, label %51, label %23

23:                                               ; preds = %18
  %24 = and i64 %13, 9223372036854775804
  br label %25

25:                                               ; preds = %25, %23
  %26 = phi i64 [ 0, %23 ], [ %48, %25 ]
  %27 = phi i32 [ 0, %23 ], [ %47, %25 ]
  %28 = phi i64 [ %24, %23 ], [ %49, %25 ]
  %29 = getelementptr inbounds [300 x i32], [300 x i32]* %2, i64 0, i64 %26
  %30 = load i32, i32* %29, align 16, !tbaa !5
  %31 = icmp eq i32 %20, %30
  %32 = or i64 %26, 1
  %33 = getelementptr inbounds [300 x i32], [300 x i32]* %2, i64 0, i64 %32
  %34 = load i32, i32* %33, align 4, !tbaa !5
  %35 = icmp eq i32 %20, %34
  %36 = or i64 %26, 2
  %37 = getelementptr inbounds [300 x i32], [300 x i32]* %2, i64 0, i64 %36
  %38 = load i32, i32* %37, align 8, !tbaa !5
  %39 = icmp eq i32 %20, %38
  %40 = or i64 %26, 3
  %41 = getelementptr inbounds [300 x i32], [300 x i32]* %2, i64 0, i64 %40
  %42 = load i32, i32* %41, align 4, !tbaa !5
  %43 = icmp eq i32 %20, %42
  %44 = select i1 %43, i1 true, i1 %39
  %45 = select i1 %44, i1 true, i1 %35
  %46 = select i1 %45, i1 true, i1 %31
  %47 = select i1 %46, i32 1, i32 %27
  %48 = add nuw nsw i64 %26, 4
  %49 = add i64 %28, -4
  %50 = icmp eq i64 %49, 0
  br i1 %50, label %51, label %25, !llvm.loop !9

51:                                               ; preds = %25, %18
  %52 = phi i32 [ undef, %18 ], [ %47, %25 ]
  %53 = phi i64 [ 0, %18 ], [ %48, %25 ]
  %54 = phi i32 [ 0, %18 ], [ %47, %25 ]
  %55 = icmp eq i64 %21, 0
  br i1 %55, label %67, label %56

56:                                               ; preds = %51, %56
  %57 = phi i64 [ %64, %56 ], [ %53, %51 ]
  %58 = phi i32 [ %63, %56 ], [ %54, %51 ]
  %59 = phi i64 [ %65, %56 ], [ %21, %51 ]
  %60 = getelementptr inbounds [300 x i32], [300 x i32]* %2, i64 0, i64 %57
  %61 = load i32, i32* %60, align 4, !tbaa !5
  %62 = icmp eq i32 %20, %61
  %63 = select i1 %62, i32 1, i32 %58
  %64 = add nuw nsw i64 %57, 1
  %65 = add i64 %59, -1
  %66 = icmp eq i64 %65, 0
  br i1 %66, label %67, label %56, !llvm.loop !11

67:                                               ; preds = %56, %51
  %68 = phi i32 [ %52, %51 ], [ %63, %56 ]
  %69 = icmp eq i32 %68, 0
  br i1 %69, label %70, label %75

70:                                               ; preds = %12, %67
  %71 = load i32, i32* %15, align 4, !tbaa !5
  %72 = sext i32 %14 to i64
  %73 = getelementptr inbounds [300 x i32], [300 x i32]* %3, i64 0, i64 %72
  store i32 %71, i32* %73, align 4, !tbaa !5
  %74 = add nsw i32 %14, 1
  br label %75

75:                                               ; preds = %70, %67
  %76 = phi i32 [ %74, %70 ], [ %14, %67 ]
  %77 = add nuw nsw i64 %13, 1
  %78 = load i32, i32* %1, align 4, !tbaa !5
  %79 = sext i32 %78 to i64
  %80 = icmp slt i64 %77, %79
  br i1 %80, label %12, label %81, !llvm.loop !13

81:                                               ; preds = %75
  %82 = getelementptr inbounds [300 x i32], [300 x i32]* %3, i64 0, i64 0
  %83 = load i32, i32* %82, align 16, !tbaa !5
  %84 = call i32 (i8*, ...) @printf(i8* nonnull dereferenceable(1) getelementptr inbounds ([3 x i8], [3 x i8]* @.str, i64 0, i64 0), i32 %83)
  %85 = icmp sgt i32 %76, 1
  br i1 %85, label %86, label %95

86:                                               ; preds = %81
  %87 = zext i32 %76 to i64
  br label %88

88:                                               ; preds = %86, %88
  %89 = phi i64 [ 1, %86 ], [ %93, %88 ]
  %90 = getelementptr inbounds [300 x i32], [300 x i32]* %3, i64 0, i64 %89
  %91 = load i32, i32* %90, align 4, !tbaa !5
  %92 = call i32 (i8*, ...) @printf(i8* nonnull dereferenceable(1) getelementptr inbounds ([4 x i8], [4 x i8]* @.str.1, i64 0, i64 0), i32 %91)
  %93 = add nuw nsw i64 %89, 1
  %94 = icmp eq i64 %93, %87
  br i1 %94, label %95, label %88, !llvm.loop !14

95:                                               ; preds = %88, %10, %81
  call void @llvm.lifetime.end.p0i8(i64 1200, i8* nonnull %6) #4
  call void @llvm.lifetime.end.p0i8(i64 1200, i8* nonnull %5) #4
  call void @llvm.lifetime.end.p0i8(i64 4, i8* nonnull %4) #4
  ret i32 0
}

; Function Attrs: argmemonly mustprogress nofree nosync nounwind willreturn
declare void @llvm.lifetime.start.p0i8(i64 immarg, i8* nocapture) #1

; Function Attrs: argmemonly mustprogress nofree nounwind willreturn writeonly
declare void @llvm.memset.p0i8.i64(i8* nocapture writeonly, i8, i64, i1 immarg) #2

; Function Attrs: nofree nounwind
declare noundef i32 @__isoc99_scanf(i8* nocapture noundef readonly, ...) local_unnamed_addr #3

; Function Attrs: nofree nounwind
declare noundef i32 @printf(i8* nocapture noundef readonly, ...) local_unnamed_addr #3

; Function Attrs: argmemonly mustprogress nofree nosync nounwind willreturn
declare void @llvm.lifetime.end.p0i8(i64 immarg, i8* nocapture) #1


!llvm.module.flags = !{!0, !1, !2, !3}
!llvm.ident = !{!4}

!0 = !{i32 1, !"wchar_size", i32 4}
!1 = !{i32 7, !"PIC Level", i32 2}
!2 = !{i32 7, !"PIE Level", i32 2}
!3 = !{i32 7, !"uwtable", i32 1}
!4 = !{!"clang version 13.0.0"}
!5 = !{!6, !6, i64 0}
!6 = !{!"int", !7, i64 0}
!7 = !{!"omnipotent char", !8, i64 0}
!8 = !{!"Simple C/C++ TBAA"}
!9 = distinct !{!9, !10}
!10 = !{!"llvm.loop.mustprogress"}
!11 = distinct !{!11, !12}
!12 = !{!"llvm.loop.unroll.disable"}
!13 = distinct !{!13, !10}
!14 = distinct !{!14, !10}
